target datalayout = "e-m:e-p270:32:32-p271:32:32-p272:64:64-i64:64-i128:128-f80:128-n8:16:32:64-S128"
target triple = "x86_64-pc-linux-gnu"

; Function Attrs: mustprogress nounwind uwtable
define linkonce_odr noundef float @_ZSt3absf(float noundef %0) #1 comdat {
  %2 = alloca float, align 4
  store float %0, ptr %2, align 4
  %3 = load float, ptr %2, align 4
  %4 = call float @llvm.fabs.f32(float %3)
  ret float %4
}

; Function Attrs: mustprogress nounwind uwtable
define linkonce_odr hidden noundef float @_ZN2cv6cv_absIfEET_S1_(float noundef %0) #1 comdat {
  %2 = alloca float, align 4
  store float %0, ptr %2, align 4
  %3 = load float, ptr %2, align 4
  %4 = call noundef float @_ZSt3absf(float noundef %3)
  ret float %4
}

; Function Attrs: mustprogress uwtable
define internal noundef double @_ZN2cvL6normL1IfdEET0_PKT_i(ptr noundef %0, i32 noundef %1) #0 {
  %3 = alloca ptr, align 8
  %4 = alloca i32, align 4
  %5 = alloca double, align 8
  %6 = alloca i32, align 4
  store ptr %0, ptr %3, align 8
  store i32 %1, ptr %4, align 4
  store double 0.000000e+00, ptr %5, align 8
  store i32 0, ptr %6, align 4
  br label %7

7:                                                ; preds = %21, %2
  %8 = load i32, ptr %6, align 4
  %9 = load i32, ptr %4, align 4
  %10 = icmp slt i32 %8, %9
  br i1 %10, label %11, label %24

11:                                               ; preds = %7
  %12 = load ptr, ptr %3, align 8
  %13 = load i32, ptr %6, align 4
  %14 = sext i32 %13 to i64
  %15 = getelementptr inbounds float, ptr %12, i64 %14
  %16 = load float, ptr %15, align 4
  %17 = call noundef float @_ZN2cv6cv_absIfEET_S1_(float noundef %16)
  %18 = fpext float %17 to double
  %19 = load double, ptr %5, align 8
  %20 = fadd double %19, %18
  store double %20, ptr %5, align 8
  br label %21

21:                                               ; preds = %11
  %22 = load i32, ptr %6, align 4
  %23 = add nsw i32 %22, 1
  store i32 %23, ptr %6, align 4
  br label %7, !llvm.loop !27

24:                                               ; preds = %7
  %25 = load double, ptr %5, align 8
  ret double %25
}

; Function Attrs: mustprogress uwtable
define linkonce_odr hidden noundef i32 @_ZN2cv7normL1_IfdEEiPKT_PKhPT0_ii(ptr noundef %0, ptr noundef %1, ptr noundef %2, i32 noundef %3, i32 noundef %4) #0 comdat {
  %6 = alloca ptr, align 8
  %7 = alloca ptr, align 8
  %8 = alloca ptr, align 8
  %9 = alloca i32, align 4
  %10 = alloca i32, align 4
  %11 = alloca double, align 8
  %12 = alloca i32, align 4
  %13 = alloca i32, align 4
  store ptr %0, ptr %6, align 8
  store ptr %1, ptr %7, align 8
  store ptr %2, ptr %8, align 8
  store i32 %3, ptr %9, align 4
  store i32 %4, ptr %10, align 4
  %14 = load ptr, ptr %8, align 8
  %15 = load double, ptr %14, align 8
  store double %15, ptr %11, align 8
  %16 = load ptr, ptr %7, align 8
  %17 = icmp ne ptr %16, null
  br i1 %17, label %26, label %18

18:                                               ; preds = %5
  %19 = load ptr, ptr %6, align 8
  %20 = load i32, ptr %9, align 4
  %21 = load i32, ptr %10, align 4
  %22 = mul nsw i32 %20, %21
  %23 = call noundef double @_ZN2cvL6normL1IfdEET0_PKT_i(ptr noundef %19, i32 noundef %22)
  %24 = load double, ptr %11, align 8
  %25 = fadd double %24, %23
  store double %25, ptr %11, align 8
  br label %66

26:                                               ; preds = %5
  store i32 0, ptr %12, align 4
  br label %27

27:                                               ; preds = %58, %26
  %28 = load i32, ptr %12, align 4
  %29 = load i32, ptr %9, align 4
  %30 = icmp slt i32 %28, %29
  br i1 %30, label %31, label %65

31:                                               ; preds = %27
  %32 = load ptr, ptr %7, align 8
  %33 = load i32, ptr %12, align 4
  %34 = sext i32 %33 to i64
  %35 = getelementptr inbounds i8, ptr %32, i64 %34
  %36 = load i8, ptr %35, align 1
  %37 = icmp ne i8 %36, 0
  br i1 %37, label %38, label %57

38:                                               ; preds = %31
  store i32 0, ptr %13, align 4
  br label %39

39:                                               ; preds = %53, %38
  %40 = load i32, ptr %13, align 4
  %41 = load i32, ptr %10, align 4
  %42 = icmp slt i32 %40, %41
  br i1 %42, label %43, label %56

43:                                               ; preds = %39
  %44 = load ptr, ptr %6, align 8
  %45 = load i32, ptr %13, align 4
  %46 = sext i32 %45 to i64
  %47 = getelementptr inbounds float, ptr %44, i64 %46
  %48 = load float, ptr %47, align 4
  %49 = call noundef float @_ZN2cv6cv_absIfEET_S1_(float noundef %48)
  %50 = fpext float %49 to double
  %51 = load double, ptr %11, align 8
  %52 = fadd double %51, %50
  store double %52, ptr %11, align 8
  br label %53

53:                                               ; preds = %43
  %54 = load i32, ptr %13, align 4
  %55 = add nsw i32 %54, 1
  store i32 %55, ptr %13, align 4
  br label %39, !llvm.loop !25

56:                                               ; preds = %39
  br label %57

57:                                               ; preds = %56, %31
  br label %58

58:                                               ; preds = %57
  %59 = load i32, ptr %12, align 4
  %60 = add nsw i32 %59, 1
  store i32 %60, ptr %12, align 4
  %61 = load i32, ptr %10, align 4
  %62 = load ptr, ptr %6, align 8
  %63 = sext i32 %61 to i64
  %64 = getelementptr inbounds float, ptr %62, i64 %63
  store ptr %64, ptr %6, align 8
  br label %27, !llvm.loop !26

65:                                               ; preds = %27
  br label %66

66:                                               ; preds = %65, %18
  %67 = load double, ptr %11, align 8
  %68 = load ptr, ptr %8, align 8
  store double %67, ptr %68, align 8
  ret i32 0
}

; Function Attrs: mustprogress uwtable
define internal noundef i32 @_ZN2cvL10normL1_32fEPKfPKhPdii(ptr noundef %0, ptr noundef %1, ptr noundef %2, i32 noundef %3, i32 noundef %4) #0 {
  %6 = alloca ptr, align 8
  %7 = alloca ptr, align 8
  %8 = alloca ptr, align 8
  %9 = alloca i32, align 4
  %10 = alloca i32, align 4
  store ptr %0, ptr %6, align 8
  store ptr %1, ptr %7, align 8
  store ptr %2, ptr %8, align 8
  store i32 %3, ptr %9, align 4
  store i32 %4, ptr %10, align 4
  %11 = load ptr, ptr %6, align 8
  %12 = load ptr, ptr %7, align 8
  %13 = load ptr, ptr %8, align 8
  %14 = load i32, ptr %9, align 4
  %15 = load i32, ptr %10, align 4
  %16 = call noundef i32 @_ZN2cv7normL1_IfdEEiPKT_PKhPT0_ii(ptr noundef %11, ptr noundef %12, ptr noundef %13, i32 noundef %14, i32 noundef %15)
  ret i32 %16
}